target datalayout = "e-m:e-p270:32:32-p271:32:32-p272:64:64-i64:64-i128:128-f80:128-n8:16:32:64-S128"
target triple = "x86_64-pc-linux-gnu"

%"class.cv::Mat" = type { i32, i32, i32, i32, ptr, ptr, ptr, ptr, ptr, ptr, %"struct.cv::MatSize", %"struct.cv::MatStep" }
%"struct.cv::MatSize" = type { ptr }
%"struct.cv::MatStep" = type { ptr, [2 x i64] }

@.str.2 = private unnamed_addr constant [8 x i8] c"%5.2f, \00", align 1
@.str.3 = private unnamed_addr constant [2 x i8] c"\0A\00", align 1

; Function Attrs: inlinehint mustprogress nounwind uwtable
define linkonce_odr hidden noundef nonnull align 1 dereferenceable(1) ptr @_ZNK2cv4Mat_IhEclEii(ptr noundef nonnull align 8 dereferenceable(96) %0, i32 noundef %1, i32 noundef %2) #4 comdat align 2 {
  %4 = alloca ptr, align 8
  %5 = alloca i32, align 4
  %6 = alloca i32, align 4
  store ptr %0, ptr %4, align 8, !tbaa !37
  store i32 %1, ptr %5, align 4, !tbaa !17
  store i32 %2, ptr %6, align 4, !tbaa !17
  %7 = load ptr, ptr %4, align 8
  %8 = getelementptr inbounds nuw %"class.cv::Mat", ptr %7, i32 0, i32 4
  %9 = load ptr, ptr %8, align 8, !tbaa !33
  %10 = getelementptr inbounds nuw %"class.cv::Mat", ptr %7, i32 0, i32 11
  %11 = getelementptr inbounds nuw %"struct.cv::MatStep", ptr %10, i32 0, i32 0
  %12 = load ptr, ptr %11, align 8, !tbaa !34
  %13 = getelementptr inbounds i64, ptr %12, i64 0
  %14 = load i64, ptr %13, align 8, !tbaa !35
  %15 = load i32, ptr %5, align 4, !tbaa !17
  %16 = sext i32 %15 to i64
  %17 = mul i64 %14, %16
  %18 = getelementptr inbounds nuw i8, ptr %9, i64 %17
  %19 = load i32, ptr %6, align 4, !tbaa !17
  %20 = sext i32 %19 to i64
  %21 = getelementptr inbounds i8, ptr %18, i64 %20
  ret ptr %21
}

; Function Attrs: mustprogress uwtable
define hidden void @_ZN2cv8tracking4impl3tld10printPatchERKNS_4Mat_IhEE(ptr noundef nonnull align 8 dereferenceable(96) %0) #5 {
  %2 = alloca ptr, align 8
  %3 = alloca i32, align 4
  %4 = alloca i32, align 4
  %5 = alloca i32, align 4
  store ptr %0, ptr %2, align 8, !tbaa !37
  call void @llvm.lifetime.start.p0(i64 4, ptr %3) #3
  store i32 0, ptr %3, align 4, !tbaa !17
  br label %6

6:                                                ; preds = %34, %1
  %7 = load i32, ptr %3, align 4, !tbaa !17
  %8 = load ptr, ptr %2, align 8, !tbaa !37
  %9 = getelementptr inbounds nuw %"class.cv::Mat", ptr %8, i32 0, i32 2
  %10 = load i32, ptr %9, align 8, !tbaa !19
  %11 = icmp slt i32 %7, %10
  br i1 %11, label %13, label %12

12:                                               ; preds = %6
  store i32 2, ptr %4, align 4
  call void @llvm.lifetime.end.p0(i64 4, ptr %3) #3
  br label %37

13:                                               ; preds = %6
  call void @llvm.lifetime.start.p0(i64 4, ptr %5) #3
  store i32 0, ptr %5, align 4, !tbaa !17
  br label %14

14:                                               ; preds = %29, %13
  %15 = load i32, ptr %5, align 4, !tbaa !17
  %16 = load ptr, ptr %2, align 8, !tbaa !37
  %17 = getelementptr inbounds nuw %"class.cv::Mat", ptr %16, i32 0, i32 3
  %18 = load i32, ptr %17, align 4, !tbaa !28
  %19 = icmp slt i32 %15, %18
  br i1 %19, label %21, label %20

20:                                               ; preds = %14
  store i32 5, ptr %4, align 4
  call void @llvm.lifetime.end.p0(i64 4, ptr %5) #3
  br label %32

21:                                               ; preds = %14
  %22 = load ptr, ptr %2, align 8, !tbaa !37
  %23 = load i32, ptr %3, align 4, !tbaa !17
  %24 = load i32, ptr %5, align 4, !tbaa !17
  %25 = call noundef nonnull align 1 dereferenceable(1) ptr @_ZNK2cv4Mat_IhEclEii(ptr noundef nonnull align 8 dereferenceable(96) %22, i32 noundef %23, i32 noundef %24)
  %26 = load i8, ptr %25, align 1, !tbaa !29
  %27 = uitofp i8 %26 to double
  %28 = call i32 (ptr, ...) @printf(ptr noundef @.str.2, double noundef %27)
  br label %29

29:                                               ; preds = %21
  %30 = load i32, ptr %5, align 4, !tbaa !17
  %31 = add nsw i32 %30, 1
  store i32 %31, ptr %5, align 4, !tbaa !17
  br label %14, !llvm.loop !39

32:                                               ; preds = %20
  %33 = call i32 (ptr, ...) @printf(ptr noundef @.str.3)
  br label %34

34:                                               ; preds = %32
  %35 = load i32, ptr %3, align 4, !tbaa !17
  %36 = add nsw i32 %35, 1
  store i32 %36, ptr %3, align 4, !tbaa !17
  br label %6, !llvm.loop !40

37:                                               ; preds = %12
  ret void
}