; Function Attrs: mustprogress nofree nounwind uwtable
define hidden void @_ZN2cv8tracking4impl3tld10printPatchERKNS_4Mat_IhEE(ptr noundef nonnull readonly align 8 captures(none) dereferenceable(96) %0) local_unnamed_addr #3 {
  %2 = getelementptr inbounds nuw i8, ptr %0, i64 8
  %3 = load i32, ptr %2, align 8, !tbaa !3
  %4 = icmp sgt i32 %3, 0
  br i1 %4, label %.preheader.lr.ph, label %._crit_edge11

.preheader.lr.ph:                                 ; preds = %1
  %5 = getelementptr inbounds nuw i8, ptr %0, i64 12
  %6 = getelementptr inbounds nuw i8, ptr %0, i64 16
  %7 = getelementptr inbounds nuw i8, ptr %0, i64 72
  br label %.preheader

.preheader:                                       ; preds = %.preheader.lr.ph, %._crit_edge
  %indvars.iv13 = phi i64 [ 0, %.preheader.lr.ph ], [ %indvars.iv.next14, %._crit_edge ]
  %8 = load i32, ptr %5, align 4, !tbaa !16
  %9 = icmp sgt i32 %8, 0
  br i1 %9, label %.lr.ph, label %._crit_edge

._crit_edge11:                                    ; preds = %._crit_edge, %1
  ret void

._crit_edge:                                      ; preds = %.lr.ph, %.preheader
  %putchar = tail call i32 @putchar(i32 10)
  %indvars.iv.next14 = add nuw nsw i64 %indvars.iv13, 1
  %10 = load i32, ptr %2, align 8, !tbaa !3
  %11 = sext i32 %10 to i64
  %12 = icmp slt i64 %indvars.iv.next14, %11
  br i1 %12, label %.preheader, label %._crit_edge11, !llvm.loop !23

.lr.ph:                                           ; preds = %.preheader, %.lr.ph
  %indvars.iv = phi i64 [ %indvars.iv.next, %.lr.ph ], [ 0, %.preheader ]
  %13 = load ptr, ptr %6, align 8, !tbaa !24
  %14 = load ptr, ptr %7, align 8, !tbaa !25
  %15 = load i64, ptr %14, align 8, !tbaa !17
  %16 = mul i64 %15, %indvars.iv13
  %17 = getelementptr inbounds nuw i8, ptr %13, i64 %16
  %18 = getelementptr inbounds nuw i8, ptr %17, i64 %indvars.iv
  %19 = load i8, ptr %18, align 1, !tbaa !19
  %20 = uitofp i8 %19 to double
  %21 = tail call i32 (ptr, ...) @printf(ptr noundef nonnull dereferenceable(1) @.str.2, double noundef %20)
  %indvars.iv.next = add nuw nsw i64 %indvars.iv, 1
  %22 = load i32, ptr %5, align 4, !tbaa !16
  %23 = sext i32 %22 to i64
  %24 = icmp slt i64 %indvars.iv.next, %23
  br i1 %24, label %.lr.ph, label %._crit_edge, !llvm.loop !26
}